; Function Attrs: mustprogress uwtable
define internal void @_ZL9ping_donePvN4absl12lts_202308026StatusE(ptr noundef %arg, ptr nocapture noundef readonly %error) #5 personality ptr @__gxx_personality_v0 {
entry:
  %agg.tmp = alloca %"class.absl::lts_20230802::Status", align 8
  %cq = getelementptr inbounds i8, ptr %arg, i64 40
  %0 = load ptr, ptr %cq, align 8
  %tag = getelementptr inbounds i8, ptr %arg, i64 32
  %1 = load ptr, ptr %tag, align 8
  %2 = load i64, ptr %error, align 8
  store i64 %2, ptr %agg.tmp, align 8
  %and.i.i.i = and i64 %2, 1
  %cmp.i.i.i = icmp eq i64 %and.i.i.i, 0
  br i1 %cmp.i.i.i, label %_ZN4absl12lts_202308026StatusC2ERKS1_.exit, label %if.then.i.i

if.then.i.i:                                      ; preds = %entry
  %sub.i.i.i = add nsw i64 %2, -1
  %3 = inttoptr i64 %sub.i.i.i to ptr
  %4 = atomicrmw add ptr %3, i32 1 monotonic, align 4
  br label %_ZN4absl12lts_202308026StatusC2ERKS1_.exit

_ZN4absl12lts_202308026StatusC2ERKS1_.exit:       ; preds = %entry, %if.then.i.i
  %completion_storage = getelementptr inbounds i8, ptr %arg, i64 48
  invoke void @_Z14grpc_cq_end_opP21grpc_completion_queuePvN4absl12lts_202308026StatusEPFvS1_P18grpc_cq_completionES1_S6_b(ptr noundef %0, ptr noundef %1, ptr noundef nonnull %agg.tmp, ptr noundef nonnull @_ZL12ping_destroyPvP18grpc_cq_completion, ptr noundef nonnull %arg, ptr noundef nonnull %completion_storage, i1 noundef zeroext false)
          to label %invoke.cont unwind label %lpad

invoke.cont:                                      ; preds = %_ZN4absl12lts_202308026StatusC2ERKS1_.exit
  %5 = load i64, ptr %agg.tmp, align 8
  %and.i.i.i4 = and i64 %5, 1
  %cmp.i.i.i5 = icmp eq i64 %and.i.i.i4, 0
  br i1 %cmp.i.i.i5, label %_ZN4absl12lts_202308026StatusD2Ev.exit, label %if.then.i.i6

if.then.i.i6:                                     ; preds = %invoke.cont
  invoke void @_ZN4absl12lts_202308026Status15UnrefNonInlinedEm(i64 noundef %5)
          to label %_ZN4absl12lts_202308026StatusD2Ev.exit unwind label %terminate.lpad.i

terminate.lpad.i:                                 ; preds = %if.then.i.i6
  %6 = landingpad { ptr, i32 }
          catch ptr null
  %7 = extractvalue { ptr, i32 } %6, 0
  call void @__clang_call_terminate(ptr %7) #16
  unreachable

_ZN4absl12lts_202308026StatusD2Ev.exit:           ; preds = %invoke.cont, %if.then.i.i6
  ret void

lpad:                                             ; preds = %_ZN4absl12lts_202308026StatusC2ERKS1_.exit
  %8 = landingpad { ptr, i32 }
          cleanup
  call void @_ZN4absl12lts_202308026StatusD2Ev(ptr noundef nonnull align 8 dereferenceable(8) %agg.tmp) #14
  resume { ptr, i32 } %8
}